	.file	"main.cpp"
	.text
.Ltext0:
	.section	.rodata
	.type	_ZStL19piecewise_construct, @object
	.size	_ZStL19piecewise_construct, 1
_ZStL19piecewise_construct:
	.zero	1
	.local	_ZStL8__ioinit
	.comm	_ZStL8__ioinit,1,1
.LC0:
	.string	"***dingjun Hello!***"
.LC1:
	.string	"Hello world!"
	.text
	.globl	main
	.type	main, @function
main:
.LFB1522:
	.file 1 "main.cpp"
	.loc 1 7 1
	.cfi_startproc
	.cfi_personality 0x9b,DW.ref.__gxx_personality_v0
	.cfi_lsda 0x1b,.LLSDA1522
	endbr64
	pushq	%rbp
	.cfi_def_cfa_offset 16
	.cfi_offset 6, -16
	movq	%rsp, %rbp
	.cfi_def_cfa_register 6
	pushq	%rbx
	subq	$72, %rsp
	.cfi_offset 3, -24
	.loc 1 7 1
	movq	%fs:40, %rax
	movq	%rax, -24(%rbp)
	xorl	%eax, %eax
	.loc 1 8 19
	leaq	-65(%rbp), %rax
	movq	%rax, %rdi
	call	_ZNSaIcEC1Ev@PLT
	leaq	-65(%rbp), %rdx
	leaq	-64(%rbp), %rax
	leaq	.LC0(%rip), %rsi
	movq	%rax, %rdi
.LEHB0:
	call	_ZNSt7__cxx1112basic_stringIcSt11char_traitsIcESaIcEEC1EPKcRKS3_@PLT
.LEHE0:
	leaq	-65(%rbp), %rax
	movq	%rax, %rdi
	call	_ZNSaIcED1Ev@PLT
	.loc 1 9 13
	leaq	.LC1(%rip), %rsi
	leaq	_ZSt4cout(%rip), %rdi
.LEHB1:
	call	_ZStlsISt11char_traitsIcEERSt13basic_ostreamIcT_ES5_PKc@PLT
	movq	%rax, %rdx
	.loc 1 9 31
	movq	_ZSt4endlIcSt11char_traitsIcEERSt13basic_ostreamIT_T0_ES6_@GOTPCREL(%rip), %rax
	movq	%rax, %rsi
	movq	%rdx, %rdi
	call	_ZNSolsEPFRSoS_E@PLT
	.loc 1 10 13
	leaq	-64(%rbp), %rax
	movq	%rax, %rsi
	leaq	_ZSt4cout(%rip), %rdi
	call	_ZStlsIcSt11char_traitsIcESaIcEERSt13basic_ostreamIT_T0_ES7_RKNSt7__cxx1112basic_stringIS4_S5_T1_EE@PLT
	movq	%rax, %rdx
	.loc 1 10 21
	movq	_ZSt4endlIcSt11char_traitsIcEERSt13basic_ostreamIT_T0_ES6_@GOTPCREL(%rip), %rax
	movq	%rax, %rsi
	movq	%rdx, %rdi
	call	_ZNSolsEPFRSoS_E@PLT
.LEHE1:
	.loc 1 11 12
	movl	$0, %ebx
	.loc 1 8 19
	leaq	-64(%rbp), %rax
	movq	%rax, %rdi
	call	_ZNSt7__cxx1112basic_stringIcSt11char_traitsIcESaIcEED1Ev@PLT
	movl	%ebx, %eax
	.loc 1 12 1
	movq	-24(%rbp), %rcx
	xorq	%fs:40, %rcx
	je	.L5
	jmp	.L8
.L6:
	endbr64
	movq	%rax, %rbx
	leaq	-65(%rbp), %rax
	movq	%rax, %rdi
	call	_ZNSaIcED1Ev@PLT
	movq	%rbx, %rax
	movq	%rax, %rdi
.LEHB2:
	call	_Unwind_Resume@PLT
.L7:
	endbr64
	movq	%rax, %rbx
	.loc 1 8 19
	leaq	-64(%rbp), %rax
	movq	%rax, %rdi
	call	_ZNSt7__cxx1112basic_stringIcSt11char_traitsIcESaIcEED1Ev@PLT
	movq	%rbx, %rax
	movq	%rax, %rdi
	call	_Unwind_Resume@PLT
.LEHE2:
.L8:
	.loc 1 12 1
	call	__stack_chk_fail@PLT
.L5:
	addq	$72, %rsp
	popq	%rbx
	popq	%rbp
	.cfi_def_cfa 7, 8
	ret
	.cfi_endproc
.LFE1522:
	.globl	__gxx_personality_v0
	.section	.gcc_except_table,"a",@progbits
.LLSDA1522:
	.byte	0xff
	.byte	0xff
	.byte	0x1
	.uleb128 .LLSDACSE1522-.LLSDACSB1522
.LLSDACSB1522:
	.uleb128 .LEHB0-.LFB1522
	.uleb128 .LEHE0-.LEHB0
	.uleb128 .L6-.LFB1522
	.uleb128 0
	.uleb128 .LEHB1-.LFB1522
	.uleb128 .LEHE1-.LEHB1
	.uleb128 .L7-.LFB1522
	.uleb128 0
	.uleb128 .LEHB2-.LFB1522
	.uleb128 .LEHE2-.LEHB2
	.uleb128 0
	.uleb128 0
.LLSDACSE1522:
	.text
	.size	main, .-main
	.type	_Z41__static_initialization_and_destruction_0ii, @function
_Z41__static_initialization_and_destruction_0ii:
.LFB2015:
	.loc 1 12 1
	.cfi_startproc
	endbr64
	pushq	%rbp
	.cfi_def_cfa_offset 16
	.cfi_offset 6, -16
	movq	%rsp, %rbp
	.cfi_def_cfa_register 6
	subq	$16, %rsp
	movl	%edi, -4(%rbp)
	movl	%esi, -8(%rbp)
	.loc 1 12 1
	cmpl	$1, -4(%rbp)
	jne	.L11
	.loc 1 12 1 is_stmt 0 discriminator 1
	cmpl	$65535, -8(%rbp)
	jne	.L11
	.file 2 "/usr/include/c++/9/iostream"
	.loc 2 74 25 is_stmt 1
	leaq	_ZStL8__ioinit(%rip), %rdi
	call	_ZNSt8ios_base4InitC1Ev@PLT
	leaq	__dso_handle(%rip), %rdx
	leaq	_ZStL8__ioinit(%rip), %rsi
	movq	_ZNSt8ios_base4InitD1Ev@GOTPCREL(%rip), %rax
	movq	%rax, %rdi
	call	__cxa_atexit@PLT
.L11:
	.loc 1 12 1
	nop
	leave
	.cfi_def_cfa 7, 8
	ret
	.cfi_endproc
.LFE2015:
	.size	_Z41__static_initialization_and_destruction_0ii, .-_Z41__static_initialization_and_destruction_0ii
	.type	_GLOBAL__sub_I_main, @function
_GLOBAL__sub_I_main:
.LFB2016:
	.loc 1 12 1
	.cfi_startproc
	endbr64
	pushq	%rbp
	.cfi_def_cfa_offset 16
	.cfi_offset 6, -16
	movq	%rsp, %rbp
	.cfi_def_cfa_register 6
	.loc 1 12 1
	movl	$65535, %esi
	movl	$1, %edi
	call	_Z41__static_initialization_and_destruction_0ii
	popq	%rbp
	.cfi_def_cfa 7, 8
	ret
	.cfi_endproc
.LFE2016:
	.size	_GLOBAL__sub_I_main, .-_GLOBAL__sub_I_main
	.section	.init_array,"aw"
	.align 8
	.quad	_GLOBAL__sub_I_main
	.text
.Letext0:
	.file 3 "/usr/include/c++/9/bits/basic_string.h"
	.file 4 "/usr/include/c++/9/bits/basic_string.tcc"
	.file 5 "/usr/include/c++/9/cwchar"
	.file 6 "/usr/include/c++/9/new"
	.file 7 "/usr/include/c++/9/bits/exception_ptr.h"
	.file 8 "/usr/include/x86_64-linux-gnu/c++/9/bits/c++config.h"
	.file 9 "/usr/include/c++/9/type_traits"
	.file 10 "/usr/include/c++/9/bits/cpp_type_traits.h"
	.file 11 "/usr/include/c++/9/bits/stl_pair.h"
	.file 12 "/usr/include/c++/9/bits/stl_iterator_base_types.h"
	.file 13 "/usr/include/c++/9/debug/debug.h"
	.file 14 "/usr/include/c++/9/bits/char_traits.h"
	.file 15 "/usr/include/c++/9/cstdint"
	.file 16 "/usr/include/c++/9/clocale"
	.file 17 "/usr/include/c++/9/bits/allocator.h"
	.file 18 "/usr/include/c++/9/cstdlib"
	.file 19 "/usr/include/c++/9/cstdio"
	.file 20 "/usr/include/c++/9/bits/alloc_traits.h"
	.file 21 "/usr/include/c++/9/initializer_list"
	.file 22 "/usr/include/c++/9/bits/stringfwd.h"
	.file 23 "/usr/include/c++/9/system_error"
	.file 24 "/usr/include/c++/9/bits/ios_base.h"
	.file 25 "/usr/include/c++/9/cwctype"
	.file 26 "/usr/include/c++/9/iosfwd"
	.file 27 "/usr/include/c++/9/bits/stl_iterator_base_funcs.h"
	.file 28 "/usr/include/c++/9/bits/predefined_ops.h"
	.file 29 "/usr/include/c++/9/ext/new_allocator.h"
	.file 30 "/usr/include/c++/9/ext/numeric_traits.h"
	.file 31 "/usr/include/c++/9/ext/alloc_traits.h"
	.file 32 "/usr/include/c++/9/bits/stl_iterator.h"
	.file 33 "/usr/include/c++/9/ext/type_traits.h"
	.file 34 "/usr/lib/gcc/x86_64-linux-gnu/9/include/stddef.h"
	.file 35 "<built-in>"
	.file 36 "/usr/include/x86_64-linux-gnu/bits/types/wint_t.h"
	.file 37 "/usr/include/x86_64-linux-gnu/bits/types/__mbstate_t.h"
	.file 38 "/usr/include/x86_64-linux-gnu/bits/types/mbstate_t.h"
	.file 39 "/usr/include/x86_64-linux-gnu/bits/types/__FILE.h"
	.file 40 "/usr/include/x86_64-linux-gnu/bits/types/struct_FILE.h"
	.file 41 "/usr/include/x86_64-linux-gnu/bits/types/FILE.h"
	.file 42 "/usr/include/wchar.h"
	.file 43 "/usr/include/x86_64-linux-gnu/bits/types/struct_tm.h"
	.file 44 "/usr/include/x86_64-linux-gnu/bits/types.h"
	.file 45 "/usr/include/x86_64-linux-gnu/bits/stdint-intn.h"
	.file 46 "/usr/include/x86_64-linux-gnu/bits/stdint-uintn.h"
	.file 47 "/usr/include/stdint.h"
	.file 48 "/usr/include/locale.h"
	.file 49 "/usr/include/time.h"
	.file 50 "/usr/include/x86_64-linux-gnu/c++/9/bits/atomic_word.h"
	.file 51 "/usr/include/stdlib.h"
	.file 52 "/usr/include/x86_64-linux-gnu/bits/types/__fpos_t.h"
	.file 53 "/usr/include/stdio.h"
	.file 54 "/usr/include/x86_64-linux-gnu/bits/sys_errlist.h"
	.file 55 "/usr/include/errno.h"
	.file 56 "/usr/include/x86_64-linux-gnu/bits/wctype-wchar.h"
	.file 57 "/usr/include/wctype.h"
	.section	.data.rel.local.DW.ref.__gxx_personality_v0,"awG",@progbits,DW.ref.__gxx_personality_v0,comdat
	.align 8
	.type	DW.ref.__gxx_personality_v0, @object
	.size	DW.ref.__gxx_personality_v0, 8
DW.ref.__gxx_personality_v0:
	.quad	__gxx_personality_v0
	.hidden	__dso_handle
	.ident	"GCC: (Ubuntu 9.3.0-17ubuntu1~20.04) 9.3.0"
	.section	.note.GNU-stack,"",@progbits
	.section	.note.gnu.property,"a"
	.align 8
	.long	 1f - 0f
	.long	 4f - 1f
	.long	 5
0:
	.string	 "GNU"
1:
	.align 8
	.long	 0xc0000002
	.long	 3f - 2f
2:
	.long	 0x3
3:
	.align 8
4:
